target datalayout = "e-m:e-p270:32:32-p271:32:32-p272:64:64-i64:64-i128:128-f80:128-n8:16:32:64-S128"
target triple = "x86_64-pc-linux-gnu"

%struct.passwd = type { ptr, ptr, i32, i32, ptr, ptr, ptr }

; Function Attrs: nounwind uwtable
define dso_local ptr @uid_to_shell(i32 noundef %0) #0 {
  %2 = alloca i32, align 4
  %3 = alloca %struct.passwd, align 8
  %4 = alloca ptr, align 8
  %5 = alloca [65536 x i8], align 16
  %6 = alloca ptr, align 8
  %7 = alloca i64, align 8
  %8 = alloca ptr, align 8
  %9 = alloca ptr, align 8
  store i32 %0, ptr %2, align 4
  call void @llvm.lifetime.start.p0(i64 48, ptr %3) #9
  call void @llvm.lifetime.start.p0(i64 8, ptr %4) #9
  call void @llvm.lifetime.start.p0(i64 65536, ptr %5) #9
  call void @llvm.lifetime.start.p0(i64 8, ptr %6) #9
  store ptr null, ptr %6, align 8
  call void @llvm.lifetime.start.p0(i64 8, ptr %7) #9
  store i64 65536, ptr %7, align 8
  call void @llvm.lifetime.start.p0(i64 8, ptr %8) #9
  %10 = getelementptr inbounds [65536 x i8], ptr %5, i64 0, i64 0
  store ptr %10, ptr %8, align 8
  call void @llvm.lifetime.start.p0(i64 8, ptr %9) #9
  store ptr null, ptr %9, align 8
  %11 = load i32, ptr %2, align 4
  call void @slurm_getpwuid_r(i32 noundef %11, ptr noundef %3, ptr noundef %8, ptr noundef %6, ptr noundef %7, ptr noundef %4)
  %12 = load ptr, ptr %4, align 8
  %13 = icmp ne ptr %12, null
  br i1 %13, label %14, label %19

14:                                               ; preds = %1
  %15 = load ptr, ptr %4, align 8
  %16 = getelementptr inbounds nuw %struct.passwd, ptr %15, i32 0, i32 6
  %17 = load ptr, ptr %16, align 8
  %18 = call ptr @xstrdup(ptr noundef %17)
  store ptr %18, ptr %9, align 8
  br label %19

19:                                               ; preds = %14, %1
  call void @slurm_xfree(ptr noundef %6)
  %20 = load ptr, ptr %9, align 8
  call void @llvm.lifetime.end.p0(i64 8, ptr %9) #9
  call void @llvm.lifetime.end.p0(i64 8, ptr %8) #9
  call void @llvm.lifetime.end.p0(i64 8, ptr %7) #9
  call void @llvm.lifetime.end.p0(i64 8, ptr %6) #9
  call void @llvm.lifetime.end.p0(i64 65536, ptr %5) #9
  call void @llvm.lifetime.end.p0(i64 8, ptr %4) #9
  call void @llvm.lifetime.end.p0(i64 48, ptr %3) #9
  ret ptr %20
}